; Function Attrs: mustprogress uwtable
define range(i32 0, 2) i32 @cvUseOptimized(i32 noundef %0) local_unnamed_addr #3 {
  %2 = load volatile i8, ptr @_ZN2cv16useOptimizedFlagE, align 1, !tbaa !14, !range !80, !noundef !81
  %3 = zext nneg i8 %2 to i32
  %4 = icmp ne i32 %0, 0
  %5 = zext i1 %4 to i8
  store volatile i8 %5, ptr @_ZN2cv16useOptimizedFlagE, align 1, !tbaa !14
  %6 = select i1 %4, ptr @_ZN2cvL15featuresEnabledE, ptr @_ZN2cvL16featuresDisabledE
  store ptr %6, ptr @_ZN2cvL15currentFeaturesE, align 8, !tbaa !78
  %7 = tail call noundef nonnull align 8 dereferenceable(40) ptr @_ZN2cv14getCoreTlsDataEv()
  %8 = getelementptr inbounds nuw i8, ptr %7, i64 32
  store i32 0, ptr %8, align 8, !tbaa !85
  ret i32 %3
}